(lp0
(lp1
I-1
aI-1
aI-1
aI-1
aI-1
aI-1
aI-1
aI-1
aI-1
aI-1
aI-1
aI-1
aI-1
aI-1
aF0.24205944397048432
aF0.6921007769234351
aI-1
aI-1
aI-1
aI-1
aI-1
aI-1
aI-1
aI-1
aI-1
aI-1
aI-1
aI-1
aI-1
aI-1
aF0.4629417800583849
aI-1
aI-1
aI-1
aI-1
aI-1
aI-1
aF0.3991913711393553
aI-1
aI-1
aI-1
aI-1
aI-1
aI-1
aI-1
aI-1
aI-1
aF0.30311871128870227
aI-1
aI-1
aI-1
aI-1
aI-1
aI-1
aI-1
aF0.4163382171979962
aI-1
aF1.0
aI-1
aI-1
aI-1
aI-1
aI-1
aI-1
aI-1
aI-1
aF0.4214747431894955
aI-1
aI-1
aI-1
aI-1
aI-1
aI-1
aF0.42275311393366294
aI-1
aI-1
aF0.4098414311855536
aI-1
aI-1
aI-1
aI-1
aI-1
aI-1
aI-1
aI-1
aI-1
aI-1
aI-1
aI-1
aI-1
aI-1
aI-1
aI-1
aI-1
aI-1
aI-1
aI-1
aI-1
aI-1
aI-1
aI-1
aI-1
aI-1
aI-1
aI-1
aI-1
aI-1
aF0.6073642390299053
aI-1
aI-1
aI-1
aI-1
aI-1
aI-1
aI-1
aI-1
aI-1
aI-1
aI-1
aI-1
aI-1
aI-1
aI-1
aI-1
aI-1
aI-1
aI-1
aI-1
aI-1
aI-1
aI-1
aI-1
aI-1
aF0.5924359200228351
aI-1
aI-1
aI-1
aI-1
aI-1
aI-1
aI-1
aI-1
aI-1
aI-1
aI-1
aI-1
aI-1
aI-1
aI-1
aI-1
aI-1
aF0.10693548258160457
aI-1
aI-1
aI-1
aI-1
aI-1
aI-1
aI-1
aI-1
aF0.3211507204114568
aF0.5011418594427133
aI-1
aI-1
aI-1
aI-1
aI-1
aI-1
aI-1
aI-1
aI-1
aI-1
aI-1
aI-1
aI-1
aI-1
aI-1
aI-1
aI-1
aI-1
aI-1
aI-1
aI-1
aI-1
aF0.37893548538993205
aI-1
aI-1
aI-1
aI-1
aI-1
aF0.41980422472690204
aI-1
aI-1
aI-1
aI-1
aI-1
aI-1
aI-1
aI-1
aI-1
aI-1
aI-1
aI-1
aI-1
aI-1
aI-1
aI-1
aI-1
aI-1
aI-1
aI-1
aI-1
aI-1
aI-1
aI-1
aI-1
aI-1
aI-1
aI-1
aI-1
aI-1
aF0.13401499020873384
aI-1
aI-1
aF0.22924356224907422
aI-1
aI-1
aI-1
aI-1
aI-1
aI-1
aI-1
aI-1
aI-1
aI-1
aI-1
aI-1
aI-1
aI-1
aI-1
aI-1
aI-1
aI-1
aI-1
aI-1
aI-1
aI-1
aI-1
aI-1
aI-1
aI-1
aI-1
aa(lp2
I-1
aI-1
aI-1
aI-1
aI-1
aI-1
aI-1
aI-1
aI-1
aI-1
aI-1
aI-1
aI-1
aI-1
aF0.12172449429807071
aF0.16558171331286087
aI-1
aI-1
aI-1
aI-1
aI-1
aF0.11207482877296458
aI-1
aI-1
aI-1
aI-1
aI-1
aI-1
aI-1
aI-1
aF0.15606357980865526
aI-1
aI-1
aI-1
aI-1
aI-1
aI-1
aF0.16487404865648264
aI-1
aI-1
aI-1
aI-1
aI-1
aI-1
aI-1
aF0.0945750149462532
aI-1
aI-1
aI-1
aI-1
aI-1
aI-1
aI-1
aI-1
aF0.3225510248116829
aF0.17680881489936945
aI-1
aI-1
aI-1
aI-1
aI-1
aI-1
aI-1
aI-1
aI-1
aI-1
aF0.15094352926448135
aI-1
aI-1
aI-1
aI-1
aI-1
aI-1
aF0.1542500701855083
aI-1
aI-1
aF0.17553213628614642
aI-1
aI-1
aI-1
aI-1
aI-1
aI-1
aI-1
aI-1
aI-1
aI-1
aI-1
aI-1
aI-1
aI-1
aI-1
aI-1
aI-1
aI-1
aI-1
aI-1
aI-1
aF0.21013774891284295
aI-1
aF0.028841415846995226
aI-1
aI-1
aI-1
aI-1
aI-1
aI-1
aI-1
aI-1
aI-1
aI-1
aI-1
aI-1
aI-1
aI-1
aI-1
aI-1
aI-1
aI-1
aI-1
aI-1
aI-1
aI-1
aI-1
aI-1
aI-1
aF0.5134515104560197
aI-1
aI-1
aI-1
aI-1
aF1.0
aI-1
aF0.1513036264349393
aI-1
aI-1
aI-1
aI-1
aI-1
aI-1
aI-1
aI-1
aI-1
aI-1
aI-1
aI-1
aI-1
aI-1
aI-1
aI-1
aI-1
aF0.11874539336618879
aI-1
aI-1
aI-1
aI-1
aI-1
aI-1
aI-1
aI-1
aF0.16766595275437385
aF0.18516609527908529
aI-1
aI-1
aI-1
aF0.07982665171886116
aI-1
aI-1
aI-1
aI-1
aI-1
aI-1
aI-1
aF0.20460288106029687
aI-1
aI-1
aI-1
aI-1
aI-1
aI-1
aI-1
aI-1
aI-1
aF0.15467378713764446
aF0.20136184678651523
aI-1
aI-1
aI-1
aI-1
aI-1
aF0.11685980974396519
aF0.3541974114127433
aI-1
aI-1
aI-1
aI-1
aI-1
aI-1
aI-1
aI-1
aI-1
aI-1
aI-1
aI-1
aI-1
aI-1
aI-1
aI-1
aI-1
aI-1
aI-1
aI-1
aI-1
aI-1
aI-1
aI-1
aI-1
aI-1
aI-1
aI-1
aI-1
aF0.14368422058586364
aI-1
aI-1
aF0.08554526819454686
aI-1
aI-1
aI-1
aI-1
aI-1
aI-1
aI-1
aI-1
aI-1
aI-1
aI-1
aI-1
aI-1
aI-1
aI-1
aI-1
aI-1
aI-1
aI-1
aI-1
aI-1
aI-1
aI-1
aI-1
aI-1
aI-1
aI-1
aa(lp3
I-1
aI-1
aI-1
aI-1
aI-1
aI-1
aI-1
aI-1
aI-1
aI-1
aI-1
aI-1
aI-1
aI-1
aI-1
aF0.1270103222737723
aI-1
aI-1
aI-1
aI-1
aI-1
aI-1
aI-1
aI-1
aI-1
aI-1
aI-1
aI-1
aI-1
aI-1
aF0.34492984842161906
aI-1
aI-1
aI-1
aI-1
aI-1
aI-1
aF0.3004750030706062
aI-1
aI-1
aI-1
aI-1
aI-1
aI-1
aI-1
aI-1
aI-1
aF0.6835171950899263
aI-1
aI-1
aI-1
aI-1
aI-1
aI-1
aI-1
aF0.31963203933031087
aI-1
aF0.28372834228557564
aI-1
aI-1
aI-1
aI-1
aI-1
aI-1
aI-1
aI-1
aF0.22916043341309233
aI-1
aI-1
aI-1
aI-1
aI-1
aI-1
aF0.34658024995287623
aI-1
aI-1
aF0.32031618631269737
aI-1
aI-1
aI-1
aI-1
aI-1
aI-1
aI-1
aI-1
aI-1
aI-1
aI-1
aI-1
aI-1
aI-1
aI-1
aI-1
aI-1
aI-1
aI-1
aI-1
aI-1
aI-1
aI-1
aI-1
aI-1
aI-1
aI-1
aI-1
aI-1
aI-1
aF0.05247130931618457
aI-1
aI-1
aI-1
aI-1
aI-1
aI-1
aI-1
aI-1
aI-1
aI-1
aI-1
aI-1
aI-1
aI-1
aI-1
aI-1
aI-1
aI-1
aI-1
aI-1
aI-1
aI-1
aI-1
aI-1
aI-1
aI-1
aI-1
aI-1
aI-1
aI-1
aI-1
aI-1
aI-1
aI-1
aI-1
aI-1
aI-1
aI-1
aI-1
aI-1
aI-1
aI-1
aI-1
aF1.0
aI-1
aI-1
aI-1
aI-1
aI-1
aI-1
aI-1
aI-1
aF0.155762686295097
aF0.31813194739260886
aI-1
aI-1
aI-1
aI-1
aI-1
aI-1
aI-1
aI-1
aI-1
aI-1
aI-1
aI-1
aI-1
aI-1
aI-1
aI-1
aI-1
aI-1
aI-1
aI-1
aI-1
aI-1
aF0.7382485208107059
aI-1
aI-1
aI-1
aI-1
aI-1
aI-1
aI-1
aI-1
aI-1
aI-1
aI-1
aI-1
aI-1
aI-1
aI-1
aI-1
aI-1
aI-1
aI-1
aI-1
aI-1
aI-1
aI-1
aI-1
aI-1
aI-1
aI-1
aI-1
aI-1
aI-1
aI-1
aI-1
aI-1
aI-1
aI-1
aI-1
aI-1
aI-1
aI-1
aF0.19877469378782767
aI-1
aI-1
aI-1
aI-1
aI-1
aI-1
aI-1
aI-1
aI-1
aI-1
aI-1
aI-1
aI-1
aI-1
aI-1
aI-1
aI-1
aI-1
aI-1
aI-1
aI-1
aI-1
aI-1
aI-1
aI-1
aI-1
aI-1
aa(lp4
I-1
aI-1
aI-1
aI-1
aI-1
aI-1
aI-1
aI-1
aI-1
aI-1
aI-1
aI-1
aI-1
aI-1
aI-1
aF0.8095836081529906
aI-1
aI-1
aI-1
aI-1
aI-1
aI-1
aI-1
aI-1
aI-1
aI-1
aI-1
aI-1
aI-1
aI-1
aF0.4977904503171662
aI-1
aI-1
aI-1
aI-1
aI-1
aI-1
aF0.4019100610821617
aI-1
aI-1
aI-1
aI-1
aI-1
aI-1
aI-1
aI-1
aI-1
aI-1
aI-1
aI-1
aI-1
aI-1
aI-1
aI-1
aF1.0
aF0.46774985375330075
aI-1
aF0.27893031141367924
aI-1
aI-1
aI-1
aI-1
aI-1
aI-1
aI-1
aI-1
aF0.5522816262243017
aI-1
aI-1
aI-1
aI-1
aI-1
aI-1
aF0.4203476128847611
aI-1
aI-1
aF0.430596946253325
aI-1
aI-1
aI-1
aI-1
aI-1
aI-1
aI-1
aI-1
aI-1
aI-1
aI-1
aI-1
aI-1
aI-1
aI-1
aI-1
aF0.5319274312556471
aI-1
aI-1
aI-1
aI-1
aI-1
aI-1
aI-1
aI-1
aI-1
aI-1
aI-1
aI-1
aI-1
aF0.23436713851368934
aI-1
aI-1
aI-1
aI-1
aI-1
aI-1
aI-1
aI-1
aI-1
aI-1
aF0.6854494824065491
aI-1
aI-1
aI-1
aI-1
aI-1
aI-1
aI-1
aI-1
aI-1
aI-1
aI-1
aI-1
aI-1
aI-1
aI-1
aI-1
aI-1
aI-1
aI-1
aI-1
aI-1
aI-1
aI-1
aI-1
aI-1
aI-1
aI-1
aI-1
aI-1
aI-1
aI-1
aI-1
aF0.18572553972178135
aI-1
aI-1
aI-1
aI-1
aI-1
aI-1
aI-1
aI-1
aF0.31139172302948115
aF0.5251511739308898
aI-1
aI-1
aI-1
aI-1
aI-1
aI-1
aI-1
aI-1
aI-1
aF0.3577591123719743
aI-1
aI-1
aI-1
aI-1
aI-1
aI-1
aI-1
aI-1
aI-1
aI-1
aI-1
aI-1
aI-1
aI-1
aI-1
aI-1
aI-1
aI-1
aI-1
aI-1
aI-1
aI-1
aI-1
aI-1
aI-1
aI-1
aI-1
aI-1
aI-1
aI-1
aI-1
aI-1
aI-1
aI-1
aI-1
aI-1
aI-1
aI-1
aI-1
aI-1
aI-1
aI-1
aI-1
aI-1
aI-1
aI-1
aI-1
aI-1
aI-1
aI-1
aI-1
aI-1
aF0.2181807552439864
aI-1
aI-1
aI-1
aI-1
aI-1
aI-1
aI-1
aI-1
aI-1
aI-1
aI-1
aI-1
aI-1
aI-1
aI-1
aI-1
aI-1
aI-1
aF0.10063497746177624
aI-1
aI-1
aI-1
aI-1
aI-1
aI-1
aI-1
aI-1
aa(lp5
I-1
aI-1
aI-1
aI-1
aI-1
aI-1
aI-1
aI-1
aI-1
aI-1
aI-1
aI-1
aI-1
aI-1
aF1.0
aF0.11404405196868299
aI-1
aI-1
aI-1
aI-1
aI-1
aI-1
aI-1
aI-1
aI-1
aI-1
aI-1
aI-1
aI-1
aI-1
aF0.2564632177681853
aI-1
aI-1
aI-1
aI-1
aI-1
aI-1
aF0.26693137953340457
aI-1
aI-1
aI-1
aI-1
aI-1
aI-1
aI-1
aF0.17240279164082453
aI-1
aF0.562801804167696
aI-1
aI-1
aI-1
aI-1
aI-1
aI-1
aI-1
aF0.29306677049463326
aI-1
aF0.20816217493775824
aI-1
aI-1
aI-1
aI-1
aI-1
aI-1
aI-1
aI-1
aF0.3326346533295958
aI-1
aI-1
aI-1
aI-1
aI-1
aI-1
aF0.2824307953953522
aI-1
aI-1
aF0.29852066479927597
aI-1
aI-1
aI-1
aI-1
aI-1
aI-1
aI-1
aI-1
aI-1
aI-1
aI-1
aI-1
aI-1
aI-1
aI-1
aI-1
aI-1
aI-1
aI-1
aI-1
aI-1
aI-1
aI-1
aF0.34621831433391165
aI-1
aI-1
aI-1
aI-1
aI-1
aI-1
aF0.11341942825949212
aI-1
aI-1
aI-1
aI-1
aI-1
aI-1
aI-1
aI-1
aI-1
aI-1
aI-1
aI-1
aI-1
aI-1
aI-1
aI-1
aI-1
aI-1
aI-1
aI-1
aI-1
aI-1
aI-1
aI-1
aI-1
aI-1
aI-1
aI-1
aI-1
aI-1
aI-1
aI-1
aI-1
aI-1
aI-1
aI-1
aI-1
aI-1
aI-1
aI-1
aI-1
aI-1
aI-1
aF0.39274916276515653
aI-1
aI-1
aI-1
aI-1
aI-1
aI-1
aI-1
aI-1
aF0.15169494377829124
aF0.41424743514425383
aI-1
aI-1
aI-1
aI-1
aI-1
aI-1
aI-1
aI-1
aI-1
aI-1
aI-1
aF0.3139160808419445
aI-1
aI-1
aI-1
aI-1
aF0.11849617874622302
aI-1
aI-1
aI-1
aI-1
aI-1
aF0.10893533478620666
aI-1
aI-1
aI-1
aI-1
aI-1
aI-1
aI-1
aI-1
aI-1
aI-1
aI-1
aI-1
aI-1
aI-1
aI-1
aI-1
aI-1
aI-1
aI-1
aI-1
aI-1
aI-1
aI-1
aI-1
aI-1
aI-1
aI-1
aI-1
aI-1
aI-1
aI-1
aI-1
aI-1
aI-1
aI-1
aI-1
aF0.4909740166436144
aI-1
aI-1
aF0.16701836713734158
aI-1
aI-1
aI-1
aI-1
aI-1
aI-1
aI-1
aI-1
aI-1
aI-1
aI-1
aI-1
aI-1
aI-1
aI-1
aI-1
aI-1
aI-1
aI-1
aI-1
aI-1
aI-1
aI-1
aI-1
aI-1
aI-1
aI-1
aa(lp6
I-1
aI-1
aI-1
aI-1
aI-1
aI-1
aI-1
aI-1
aI-1
aI-1
aI-1
aI-1
aI-1
aI-1
aI-1
aF0.28460103853254337
aI-1
aI-1
aI-1
aI-1
aI-1
aI-1
aI-1
aI-1
aI-1
aI-1
aI-1
aI-1
aI-1
aI-1
aF0.22287001652876284
aI-1
aI-1
aI-1
aI-1
aI-1
aI-1
aF0.23054798778379054
aI-1
aI-1
aI-1
aI-1
aI-1
aI-1
aI-1
aI-1
aI-1
aI-1
aI-1
aI-1
aI-1
aI-1
aI-1
aI-1
aF0.4037003880336907
aF0.25556622698628695
aI-1
aI-1
aI-1
aI-1
aI-1
aI-1
aI-1
aI-1
aI-1
aI-1
aF0.2395396409215668
aI-1
aI-1
aI-1
aI-1
aI-1
aI-1
aF0.24395292166058388
aI-1
aI-1
aF0.21745010355939473
aI-1
aI-1
aI-1
aI-1
aI-1
aI-1
aI-1
aI-1
aI-1
aI-1
aI-1
aI-1
aI-1
aI-1
aI-1
aI-1
aI-1
aI-1
aI-1
aF0.04364383814877978
aI-1
aF0.15273101302688194
aI-1
aI-1
aI-1
aF0.12145425181085294
aI-1
aI-1
aI-1
aI-1
aF0.23625486899679216
aI-1
aI-1
aI-1
aI-1
aI-1
aI-1
aI-1
aI-1
aI-1
aI-1
aF1.0
aI-1
aI-1
aI-1
aI-1
aI-1
aI-1
aI-1
aI-1
aI-1
aI-1
aI-1
aI-1
aI-1
aI-1
aI-1
aI-1
aI-1
aI-1
aI-1
aI-1
aI-1
aI-1
aI-1
aI-1
aI-1
aI-1
aI-1
aI-1
aI-1
aI-1
aI-1
aI-1
aF0.40474053775900637
aI-1
aI-1
aI-1
aI-1
aI-1
aI-1
aI-1
aI-1
aF0.236464952705546
aF0.24618164551772617
aI-1
aI-1
aI-1
aI-1
aI-1
aI-1
aI-1
aI-1
aI-1
aF0.35716743658411493
aI-1
aF0.2701458592129458
aI-1
aI-1
aI-1
aI-1
aF0.7642157356200027
aI-1
aI-1
aI-1
aI-1
aF0.3258480993344907
aF0.35134160143363224
aI-1
aI-1
aI-1
aI-1
aI-1
aF0.1637333495100649
aI-1
aI-1
aI-1
aI-1
aI-1
aI-1
aI-1
aI-1
aI-1
aI-1
aI-1
aI-1
aI-1
aI-1
aI-1
aI-1
aI-1
aI-1
aI-1
aI-1
aI-1
aI-1
aI-1
aI-1
aI-1
aI-1
aI-1
aI-1
aI-1
aI-1
aI-1
aI-1
aI-1
aF0.12443794325163182
aI-1
aI-1
aI-1
aI-1
aI-1
aI-1
aI-1
aI-1
aI-1
aI-1
aI-1
aI-1
aI-1
aI-1
aI-1
aI-1
aI-1
aI-1
aI-1
aI-1
aI-1
aI-1
aI-1
aI-1
aI-1
aI-1
aI-1
aa(lp7
I-1
aI-1
aI-1
aI-1
aI-1
aI-1
aI-1
aI-1
aI-1
aI-1
aI-1
aI-1
aI-1
aI-1
aF0.06712428821769784
aF0.37872875262649447
aI-1
aI-1
aI-1
aI-1
aI-1
aI-1
aI-1
aI-1
aI-1
aI-1
aI-1
aI-1
aI-1
aI-1
aF0.22690703112480243
aI-1
aI-1
aI-1
aI-1
aI-1
aI-1
aF0.22849215571595402
aI-1
aI-1
aI-1
aI-1
aF0.6934636763779668
aI-1
aI-1
aF1.0
aI-1
aI-1
aI-1
aI-1
aI-1
aI-1
aI-1
aI-1
aI-1
aF0.25144443763244567
aI-1
aF0.2881039751659049
aI-1
aI-1
aI-1
aI-1
aI-1
aI-1
aI-1
aI-1
aF0.25258986024732766
aI-1
aI-1
aI-1
aI-1
aI-1
aI-1
aF0.24428254713701128
aI-1
aI-1
aF0.23510654408995182
aI-1
aI-1
aI-1
aI-1
aI-1
aI-1
aI-1
aI-1
aI-1
aI-1
aI-1
aI-1
aI-1
aI-1
aI-1
aI-1
aI-1
aI-1
aI-1
aI-1
aI-1
aI-1
aI-1
aI-1
aI-1
aI-1
aI-1
aI-1
aI-1
aI-1
aF0.05662944929301665
aI-1
aI-1
aI-1
aI-1
aI-1
aI-1
aI-1
aI-1
aI-1
aI-1
aI-1
aI-1
aI-1
aI-1
aI-1
aI-1
aI-1
aI-1
aI-1
aI-1
aI-1
aI-1
aI-1
aI-1
aI-1
aI-1
aI-1
aI-1
aI-1
aI-1
aI-1
aI-1
aI-1
aI-1
aI-1
aI-1
aI-1
aI-1
aI-1
aI-1
aI-1
aI-1
aI-1
aF0.3657362746738278
aF0.10317226302366364
aI-1
aI-1
aI-1
aI-1
aI-1
aI-1
aI-1
aF0.3040943324038241
aF0.27872512267112776
aI-1
aI-1
aI-1
aI-1
aI-1
aI-1
aI-1
aI-1
aI-1
aI-1
aI-1
aF0.07999368197281956
aI-1
aI-1
aI-1
aI-1
aI-1
aI-1
aI-1
aI-1
aI-1
aI-1
aF0.4764526535344054
aI-1
aI-1
aI-1
aI-1
aI-1
aF0.28792767158399046
aI-1
aI-1
aI-1
aI-1
aI-1
aI-1
aI-1
aI-1
aI-1
aI-1
aI-1
aI-1
aI-1
aI-1
aI-1
aI-1
aI-1
aI-1
aI-1
aI-1
aI-1
aI-1
aI-1
aI-1
aI-1
aI-1
aI-1
aI-1
aI-1
aI-1
aI-1
aI-1
aI-1
aF0.12158089683471629
aI-1
aI-1
aI-1
aI-1
aI-1
aI-1
aI-1
aI-1
aI-1
aI-1
aI-1
aI-1
aI-1
aI-1
aI-1
aI-1
aI-1
aI-1
aI-1
aI-1
aI-1
aI-1
aI-1
aI-1
aI-1
aI-1
aI-1
aa(lp8
I-1
aI-1
aI-1
aI-1
aI-1
aI-1
aI-1
aI-1
aI-1
aI-1
aI-1
aI-1
aF0.5851652748797578
aI-1
aF0.9114531522933276
aF0.5641662783298366
aI-1
aI-1
aI-1
aI-1
aI-1
aF0.9570745978089757
aI-1
aI-1
aI-1
aI-1
aI-1
aI-1
aI-1
aI-1
aF0.31716511053754987
aI-1
aI-1
aI-1
aI-1
aI-1
aI-1
aF0.339513703520408
aI-1
aI-1
aI-1
aI-1
aF0.7087576635283444
aI-1
aI-1
aF0.3122709810855426
aI-1
aI-1
aI-1
aI-1
aI-1
aI-1
aI-1
aI-1
aI-1
aF0.378964069633394
aI-1
aI-1
aI-1
aI-1
aI-1
aI-1
aI-1
aI-1
aI-1
aI-1
aF0.33431487441538804
aI-1
aI-1
aI-1
aI-1
aI-1
aI-1
aF0.3243995809589887
aI-1
aI-1
aF0.3645260058901094
aI-1
aI-1
aI-1
aI-1
aI-1
aI-1
aI-1
aI-1
aI-1
aI-1
aI-1
aI-1
aI-1
aI-1
aI-1
aI-1
aI-1
aI-1
aI-1
aI-1
aI-1
aI-1
aI-1
aF1.0
aF0.2252574058126796
aI-1
aI-1
aI-1
aI-1
aI-1
aF0.2615420449659879
aI-1
aI-1
aI-1
aI-1
aI-1
aI-1
aI-1
aI-1
aI-1
aI-1
aI-1
aI-1
aI-1
aI-1
aI-1
aI-1
aI-1
aI-1
aI-1
aI-1
aI-1
aI-1
aI-1
aI-1
aI-1
aI-1
aI-1
aI-1
aI-1
aI-1
aI-1
aI-1
aI-1
aI-1
aI-1
aI-1
aI-1
aI-1
aI-1
aI-1
aI-1
aI-1
aI-1
aF0.6461691927208656
aI-1
aI-1
aI-1
aI-1
aI-1
aI-1
aI-1
aI-1
aF0.7134145796843208
aF0.3568447967975359
aI-1
aI-1
aI-1
aI-1
aI-1
aI-1
aI-1
aI-1
aI-1
aI-1
aI-1
aF0.17524235392299295
aI-1
aI-1
aI-1
aI-1
aI-1
aI-1
aI-1
aI-1
aI-1
aI-1
aF0.39552647563710086
aI-1
aI-1
aI-1
aI-1
aI-1
aF0.628574751516814
aI-1
aI-1
aI-1
aI-1
aI-1
aI-1
aI-1
aI-1
aI-1
aI-1
aI-1
aI-1
aI-1
aI-1
aI-1
aI-1
aI-1
aI-1
aI-1
aI-1
aI-1
aI-1
aI-1
aI-1
aI-1
aI-1
aI-1
aI-1
aI-1
aI-1
aF0.29581160213886687
aI-1
aI-1
aF0.18354399771723084
aI-1
aI-1
aI-1
aI-1
aI-1
aI-1
aI-1
aI-1
aI-1
aI-1
aI-1
aI-1
aI-1
aI-1
aI-1
aI-1
aI-1
aI-1
aI-1
aI-1
aI-1
aI-1
aI-1
aI-1
aI-1
aI-1
aI-1
aa(lp9
I-1
aI-1
aI-1
aI-1
aI-1
aI-1
aI-1
aI-1
aI-1
aI-1
aI-1
aI-1
aI-1
aI-1
aI-1
aF0.1641394176509118
aI-1
aI-1
aI-1
aI-1
aI-1
aF0.04749406842075244
aI-1
aI-1
aI-1
aI-1
aI-1
aI-1
aI-1
aI-1
aF0.2552058238101745
aI-1
aI-1
aI-1
aI-1
aI-1
aI-1
aF0.29354602535051466
aI-1
aI-1
aI-1
aI-1
aI-1
aI-1
aI-1
aI-1
aI-1
aI-1
aI-1
aI-1
aI-1
aI-1
aI-1
aI-1
aF1.0
aF0.3302796722835699
aI-1
aF0.03724809260507739
aI-1
aI-1
aI-1
aI-1
aI-1
aI-1
aI-1
aI-1
aF0.3211674073677961
aI-1
aI-1
aI-1
aI-1
aI-1
aI-1
aF0.322012337701229
aI-1
aI-1
aF0.2749244956801123
aI-1
aI-1
aI-1
aI-1
aI-1
aI-1
aI-1
aI-1
aI-1
aI-1
aI-1
aI-1
aI-1
aI-1
aI-1
aI-1
aI-1
aI-1
aI-1
aI-1
aI-1
aF0.5749091952988957
aI-1
aF0.13016070849952247
aI-1
aF0.14630842460477933
aI-1
aI-1
aI-1
aI-1
aI-1
aI-1
aI-1
aI-1
aI-1
aI-1
aI-1
aI-1
aI-1
aI-1
aI-1
aI-1
aI-1
aI-1
aI-1
aI-1
aI-1
aI-1
aI-1
aI-1
aI-1
aI-1
aI-1
aI-1
aI-1
aI-1
aI-1
aI-1
aI-1
aI-1
aI-1
aI-1
aI-1
aI-1
aI-1
aI-1
aI-1
aI-1
aI-1
aI-1
aI-1
aI-1
aI-1
aI-1
aF0.08416127114394563
aI-1
aI-1
aI-1
aI-1
aI-1
aI-1
aI-1
aI-1
aI-1
aF0.4243801663847326
aI-1
aI-1
aI-1
aI-1
aI-1
aI-1
aI-1
aI-1
aI-1
aI-1
aI-1
aI-1
aI-1
aI-1
aI-1
aI-1
aI-1
aI-1
aI-1
aI-1
aI-1
aI-1
aF0.5104072188894311
aI-1
aI-1
aI-1
aI-1
aI-1
aI-1
aI-1
aI-1
aI-1
aI-1
aI-1
aI-1
aI-1
aI-1
aI-1
aI-1
aI-1
aI-1
aI-1
aI-1
aI-1
aI-1
aI-1
aI-1
aI-1
aI-1
aI-1
aI-1
aI-1
aI-1
aI-1
aI-1
aI-1
aI-1
aI-1
aI-1
aF0.6484295785566162
aI-1
aI-1
aF0.18518470750934396
aI-1
aI-1
aI-1
aI-1
aI-1
aI-1
aI-1
aI-1
aI-1
aI-1
aI-1
aI-1
aI-1
aI-1
aI-1
aI-1
aI-1
aI-1
aI-1
aI-1
aI-1
aI-1
aI-1
aI-1
aI-1
aI-1
aI-1
aa(lp10
I-1
aI-1
aI-1
aI-1
aI-1
aI-1
aI-1
aI-1
aI-1
aI-1
aI-1
aI-1
aI-1
aI-1
aF0.9522233312604831
aF0.41252357635725795
aI-1
aI-1
aI-1
aI-1
aI-1
aF0.26988826505857627
aI-1
aI-1
aI-1
aI-1
aI-1
aI-1
aI-1
aI-1
aF0.24056308745051677
aI-1
aI-1
aI-1
aI-1
aI-1
aI-1
aF0.27521960808348
aI-1
aI-1
aI-1
aI-1
aF0.46993635003654444
aI-1
aI-1
aF0.5574916661080522
aI-1
aI-1
aI-1
aI-1
aI-1
aI-1
aI-1
aI-1
aI-1
aF0.23351237198240543
aI-1
aI-1
aI-1
aI-1
aI-1
aI-1
aI-1
aI-1
aI-1
aI-1
aF0.21249747970167404
aI-1
aF0.08508128684014618
aI-1
aI-1
aI-1
aI-1
aF0.23958397096050385
aI-1
aI-1
aF0.264186115514062
aI-1
aI-1
aI-1
aI-1
aI-1
aI-1
aI-1
aI-1
aI-1
aI-1
aI-1
aI-1
aF0.27948977827466126
aI-1
aI-1
aI-1
aI-1
aI-1
aI-1
aI-1
aI-1
aF0.209306338451869
aI-1
aI-1
aI-1
aI-1
aI-1
aI-1
aI-1
aI-1
aI-1
aI-1
aI-1
aI-1
aI-1
aI-1
aI-1
aI-1
aI-1
aI-1
aI-1
aI-1
aI-1
aI-1
aI-1
aI-1
aI-1
aI-1
aI-1
aI-1
aI-1
aI-1
aI-1
aI-1
aI-1
aI-1
aI-1
aI-1
aI-1
aI-1
aI-1
aI-1
aI-1
aI-1
aI-1
aI-1
aI-1
aI-1
aI-1
aI-1
aI-1
aI-1
aI-1
aI-1
aF0.4127681829998891
aI-1
aI-1
aI-1
aI-1
aI-1
aI-1
aI-1
aI-1
aF0.2413085112063686
aF0.2890555392697054
aI-1
aI-1
aI-1
aI-1
aI-1
aI-1
aI-1
aI-1
aI-1
aI-1
aI-1
aF0.29031198574136013
aI-1
aI-1
aI-1
aI-1
aF0.32414956146069085
aI-1
aI-1
aI-1
aI-1
aF0.6442527088403751
aF0.3334919207600398
aI-1
aI-1
aI-1
aI-1
aI-1
aF0.49959068351760877
aI-1
aI-1
aI-1
aI-1
aI-1
aI-1
aI-1
aI-1
aI-1
aI-1
aI-1
aI-1
aI-1
aI-1
aI-1
aI-1
aI-1
aI-1
aI-1
aI-1
aI-1
aI-1
aI-1
aI-1
aI-1
aI-1
aI-1
aI-1
aI-1
aI-1
aF1.0
aI-1
aI-1
aF0.136690054433617
aI-1
aI-1
aI-1
aI-1
aI-1
aI-1
aI-1
aI-1
aI-1
aI-1
aI-1
aI-1
aI-1
aI-1
aI-1
aI-1
aI-1
aI-1
aI-1
aI-1
aI-1
aI-1
aI-1
aI-1
aI-1
aI-1
aI-1
aa(lp11
I-1
aI-1
aI-1
aI-1
aI-1
aI-1
aI-1
aI-1
aI-1
aI-1
aI-1
aI-1
aI-1
aI-1
aI-1
aF0.28851570831692824
aI-1
aI-1
aI-1
aI-1
aI-1
aF0.2729701964967103
aI-1
aI-1
aI-1
aI-1
aI-1
aI-1
aI-1
aI-1
aF0.2850197038971272
aI-1
aI-1
aI-1
aI-1
aI-1
aI-1
aF0.27227065411098483
aI-1
aI-1
aI-1
aI-1
aI-1
aI-1
aI-1
aI-1
aI-1
aI-1
aI-1
aI-1
aI-1
aI-1
aI-1
aI-1
aI-1
aF0.2775799972423307
aI-1
aI-1
aI-1
aI-1
aI-1
aI-1
aI-1
aI-1
aI-1
aI-1
aF0.2597805030605366
aI-1
aI-1
aI-1
aI-1
aI-1
aI-1
aF0.2696948335763724
aI-1
aI-1
aF0.2821130548262244
aI-1
aI-1
aI-1
aI-1
aI-1
aI-1
aI-1
aI-1
aI-1
aI-1
aI-1
aI-1
aI-1
aI-1
aI-1
aI-1
aI-1
aI-1
aI-1
aI-1
aI-1
aI-1
aI-1
aI-1
aI-1
aI-1
aI-1
aI-1
aI-1
aI-1
aI-1
aI-1
aI-1
aI-1
aI-1
aI-1
aI-1
aI-1
aI-1
aI-1
aI-1
aF0.8464195005907783
aI-1
aI-1
aI-1
aI-1
aI-1
aI-1
aI-1
aI-1
aI-1
aI-1
aI-1
aI-1
aI-1
aI-1
aI-1
aI-1
aI-1
aI-1
aI-1
aI-1
aI-1
aI-1
aI-1
aI-1
aI-1
aI-1
aI-1
aI-1
aI-1
aI-1
aI-1
aI-1
aF0.32912522340229605
aI-1
aI-1
aI-1
aI-1
aI-1
aI-1
aI-1
aI-1
aF0.5491475499342117
aF0.3309655996582646
aI-1
aI-1
aI-1
aI-1
aI-1
aI-1
aI-1
aI-1
aI-1
aI-1
aI-1
aI-1
aI-1
aI-1
aI-1
aI-1
aI-1
aI-1
aI-1
aI-1
aI-1
aI-1
aF0.3001587448990107
aI-1
aI-1
aI-1
aI-1
aI-1
aF0.16602111136826553
aI-1
aI-1
aF0.4313953412720338
aI-1
aI-1
aI-1
aI-1
aI-1
aI-1
aI-1
aI-1
aI-1
aI-1
aI-1
aI-1
aI-1
aI-1
aI-1
aI-1
aI-1
aI-1
aI-1
aF0.4947773875479536
aI-1
aI-1
aI-1
aI-1
aI-1
aI-1
aI-1
aF1.0
aI-1
aI-1
aF0.1578127461974695
aI-1
aI-1
aI-1
aI-1
aI-1
aI-1
aI-1
aI-1
aI-1
aI-1
aI-1
aI-1
aI-1
aI-1
aI-1
aI-1
aI-1
aI-1
aI-1
aI-1
aI-1
aI-1
aI-1
aI-1
aI-1
aI-1
aI-1
aa(lp12
I-1
aI-1
aI-1
aI-1
aI-1
aI-1
aI-1
aI-1
aI-1
aI-1
aI-1
aI-1
aI-1
aI-1
aI-1
aF0.378767000844653
aI-1
aI-1
aI-1
aI-1
aI-1
aI-1
aI-1
aI-1
aI-1
aI-1
aI-1
aI-1
aI-1
aI-1
aF0.28221185323411246
aI-1
aI-1
aI-1
aI-1
aI-1
aI-1
aF0.2662510071726713
aI-1
aI-1
aI-1
aI-1
aI-1
aI-1
aI-1
aF0.4715566633055648
aI-1
aI-1
aI-1
aI-1
aI-1
aI-1
aI-1
aI-1
aI-1
aF0.2586384779526825
aI-1
aI-1
aI-1
aI-1
aI-1
aI-1
aI-1
aI-1
aI-1
aI-1
aF0.2173188905869425
aI-1
aI-1
aI-1
aI-1
aI-1
aI-1
aF0.26856593672991186
aI-1
aI-1
aF0.22669628697548827
aI-1
aI-1
aI-1
aI-1
aI-1
aI-1
aI-1
aI-1
aI-1
aI-1
aI-1
aI-1
aI-1
aI-1
aI-1
aI-1
aI-1
aI-1
aI-1
aI-1
aI-1
aI-1
aF0.3078263258435388
aI-1
aF0.7908241647815732
aI-1
aI-1
aI-1
aI-1
aI-1
aI-1
aI-1
aI-1
aI-1
aI-1
aI-1
aI-1
aI-1
aI-1
aI-1
aI-1
aF0.6140434794475127
aI-1
aI-1
aI-1
aI-1
aI-1
aI-1
aI-1
aI-1
aI-1
aI-1
aI-1
aI-1
aI-1
aI-1
aI-1
aI-1
aI-1
aI-1
aI-1
aI-1
aI-1
aI-1
aI-1
aI-1
aI-1
aI-1
aI-1
aI-1
aI-1
aI-1
aI-1
aI-1
aF0.15943968700400177
aI-1
aI-1
aI-1
aI-1
aI-1
aI-1
aI-1
aI-1
aF0.350366992937243
aF0.34241838434059074
aI-1
aI-1
aI-1
aI-1
aI-1
aI-1
aI-1
aI-1
aI-1
aI-1
aI-1
aF0.9471632719941281
aI-1
aI-1
aI-1
aI-1
aI-1
aI-1
aI-1
aI-1
aI-1
aI-1
aF1.0
aI-1
aI-1
aI-1
aI-1
aI-1
aI-1
aI-1
aI-1
aI-1
aI-1
aI-1
aI-1
aI-1
aI-1
aI-1
aI-1
aI-1
aI-1
aI-1
aI-1
aI-1
aI-1
aI-1
aI-1
aI-1
aI-1
aI-1
aI-1
aI-1
aI-1
aI-1
aI-1
aI-1
aI-1
aI-1
aI-1
aI-1
aI-1
aI-1
aF0.15894071346877592
aI-1
aI-1
aI-1
aI-1
aI-1
aI-1
aI-1
aI-1
aI-1
aI-1
aI-1
aI-1
aI-1
aI-1
aI-1
aI-1
aI-1
aI-1
aI-1
aI-1
aI-1
aI-1
aI-1
aI-1
aI-1
aI-1
aI-1
aa(lp13
I-1
aI-1
aI-1
aI-1
aI-1
aI-1
aI-1
aI-1
aI-1
aI-1
aI-1
aI-1
aI-1
aI-1
aF0.07838302872442256
aF0.3012126745508682
aI-1
aI-1
aI-1
aI-1
aI-1
aI-1
aI-1
aI-1
aI-1
aI-1
aI-1
aI-1
aI-1
aI-1
aF0.2907508902783591
aI-1
aI-1
aI-1
aI-1
aI-1
aI-1
aF0.25422209123046025
aI-1
aI-1
aI-1
aI-1
aI-1
aI-1
aI-1
aI-1
aI-1
aI-1
aI-1
aI-1
aI-1
aI-1
aI-1
aI-1
aI-1
aF0.3220858517959226
aI-1
aF1.0
aI-1
aI-1
aI-1
aI-1
aI-1
aI-1
aI-1
aI-1
aF0.28784980708198893
aI-1
aI-1
aI-1
aI-1
aI-1
aI-1
aF0.31617227574871504
aI-1
aI-1
aF0.2527465717036047
aI-1
aI-1
aI-1
aI-1
aI-1
aI-1
aI-1
aI-1
aI-1
aI-1
aI-1
aI-1
aI-1
aI-1
aI-1
aI-1
aI-1
aI-1
aI-1
aI-1
aI-1
aI-1
aI-1
aI-1
aI-1
aI-1
aI-1
aI-1
aI-1
aI-1
aI-1
aI-1
aI-1
aI-1
aI-1
aI-1
aI-1
aI-1
aI-1
aI-1
aI-1
aI-1
aI-1
aI-1
aI-1
aI-1
aI-1
aI-1
aI-1
aI-1
aI-1
aI-1
aI-1
aI-1
aF0.10333390026599278
aI-1
aI-1
aI-1
aI-1
aI-1
aI-1
aI-1
aI-1
aI-1
aI-1
aI-1
aI-1
aI-1
aI-1
aI-1
aI-1
aI-1
aI-1
aI-1
aI-1
aI-1
aI-1
aI-1
aI-1
aI-1
aI-1
aI-1
aI-1
aF0.3957301108241472
aF0.26879925786481473
aI-1
aI-1
aI-1
aI-1
aI-1
aI-1
aI-1
aI-1
aI-1
aI-1
aI-1
aI-1
aI-1
aI-1
aI-1
aI-1
aF0.5246074657985401
aI-1
aI-1
aI-1
aI-1
aI-1
aI-1
aI-1
aI-1
aI-1
aI-1
aI-1
aI-1
aI-1
aI-1
aI-1
aI-1
aI-1
aI-1
aI-1
aI-1
aI-1
aI-1
aI-1
aI-1
aI-1
aI-1
aI-1
aI-1
aI-1
aI-1
aI-1
aI-1
aI-1
aI-1
aI-1
aI-1
aI-1
aI-1
aI-1
aI-1
aI-1
aI-1
aF0.9300750728327307
aI-1
aI-1
aF0.16044820875893928
aI-1
aI-1
aI-1
aI-1
aI-1
aI-1
aI-1
aI-1
aI-1
aI-1
aI-1
aI-1
aI-1
aI-1
aI-1
aI-1
aI-1
aI-1
aI-1
aI-1
aI-1
aI-1
aI-1
aI-1
aI-1
aI-1
aI-1
aa(lp14
I-1
aI-1
aI-1
aI-1
aI-1
aI-1
aI-1
aI-1
aI-1
aI-1
aI-1
aI-1
aI-1
aI-1
aI-1
aF0.34364173554437355
aI-1
aI-1
aI-1
aI-1
aI-1
aF0.40217940394813817
aI-1
aI-1
aI-1
aI-1
aI-1
aI-1
aI-1
aI-1
aF0.32923054444458116
aI-1
aI-1
aI-1
aI-1
aI-1
aI-1
aF0.3024855625064914
aI-1
aI-1
aI-1
aI-1
aI-1
aI-1
aI-1
aF0.35218888198718484
aI-1
aI-1
aI-1
aI-1
aI-1
aI-1
aI-1
aI-1
aI-1
aF0.3403934076276973
aI-1
aI-1
aI-1
aI-1
aI-1
aI-1
aI-1
aI-1
aI-1
aI-1
aF0.31680440931379006
aI-1
aF0.24083534539358573
aI-1
aI-1
aI-1
aI-1
aF0.3005717678232533
aI-1
aI-1
aF0.3283339396212732
aI-1
aI-1
aI-1
aI-1
aI-1
aI-1
aI-1
aI-1
aI-1
aI-1
aI-1
aI-1
aF1.0
aI-1
aI-1
aI-1
aI-1
aI-1
aI-1
aI-1
aI-1
aF0.23732856984308204
aI-1
aI-1
aI-1
aI-1
aI-1
aI-1
aI-1
aI-1
aF0.4156100253150002
aI-1
aI-1
aI-1
aI-1
aI-1
aI-1
aI-1
aI-1
aI-1
aI-1
aI-1
aI-1
aI-1
aI-1
aI-1
aI-1
aI-1
aI-1
aI-1
aI-1
aI-1
aI-1
aI-1
aF0.6799002854091126
aI-1
aI-1
aI-1
aI-1
aI-1
aI-1
aI-1
aI-1
aI-1
aI-1
aI-1
aI-1
aI-1
aI-1
aI-1
aI-1
aI-1
aI-1
aI-1
aF0.7055952355180308
aI-1
aI-1
aI-1
aI-1
aI-1
aI-1
aI-1
aI-1
aF0.21097920341047008
aF0.3979084067422274
aI-1
aI-1
aI-1
aI-1
aI-1
aI-1
aI-1
aI-1
aI-1
aF0.08852786370914964
aI-1
aF0.8897577936772081
aI-1
aI-1
aI-1
aI-1
aF0.23365410616715354
aI-1
aI-1
aI-1
aI-1
aI-1
aF0.3146652001793982
aI-1
aI-1
aI-1
aI-1
aI-1
aF0.16730035708158966
aI-1
aI-1
aI-1
aI-1
aI-1
aI-1
aI-1
aI-1
aI-1
aI-1
aI-1
aI-1
aI-1
aI-1
aI-1
aI-1
aI-1
aI-1
aI-1
aI-1
aI-1
aI-1
aI-1
aI-1
aI-1
aI-1
aI-1
aI-1
aI-1
aI-1
aF0.6772847792477816
aI-1
aI-1
aF0.16576526703428535
aI-1
aI-1
aI-1
aI-1
aI-1
aI-1
aI-1
aI-1
aI-1
aI-1
aI-1
aI-1
aI-1
aI-1
aI-1
aI-1
aI-1
aI-1
aI-1
aI-1
aI-1
aI-1
aI-1
aI-1
aI-1
aI-1
aI-1
aa(lp15
I-1
aF0.24681655665456073
aI-1
aI-1
aI-1
aI-1
aI-1
aI-1
aI-1
aI-1
aI-1
aI-1
aF0.12900766753328255
aI-1
aF1.0
aF0.2507740804420916
aI-1
aI-1
aI-1
aI-1
aI-1
aI-1
aI-1
aI-1
aI-1
aI-1
aI-1
aI-1
aI-1
aI-1
aF0.24808432009776218
aI-1
aI-1
aI-1
aI-1
aI-1
aI-1
aF0.2766118554895969
aI-1
aI-1
aI-1
aI-1
aI-1
aI-1
aI-1
aI-1
aI-1
aI-1
aI-1
aI-1
aI-1
aI-1
aI-1
aI-1
aF0.38656845498503917
aF0.25691156216612254
aI-1
aF0.18060250544310175
aI-1
aI-1
aI-1
aI-1
aI-1
aI-1
aI-1
aI-1
aF0.20858855618062594
aI-1
aI-1
aI-1
aI-1
aI-1
aI-1
aF0.27111931432465775
aI-1
aI-1
aF0.25941613970664334
aI-1
aI-1
aI-1
aI-1
aI-1
aI-1
aI-1
aI-1
aI-1
aI-1
aI-1
aI-1
aI-1
aI-1
aI-1
aI-1
aI-1
aI-1
aI-1
aI-1
aI-1
aI-1
aI-1
aI-1
aI-1
aI-1
aI-1
aI-1
aI-1
aI-1
aI-1
aI-1
aI-1
aI-1
aI-1
aI-1
aI-1
aI-1
aI-1
aI-1
aI-1
aI-1
aI-1
aI-1
aI-1
aI-1
aI-1
aI-1
aI-1
aI-1
aI-1
aI-1
aI-1
aI-1
aI-1
aI-1
aI-1
aI-1
aI-1
aI-1
aI-1
aI-1
aI-1
aI-1
aI-1
aI-1
aI-1
aI-1
aI-1
aI-1
aI-1
aI-1
aI-1
aI-1
aF0.4104746697945796
aI-1
aI-1
aI-1
aI-1
aI-1
aI-1
aI-1
aI-1
aF0.24539237533526537
aF0.3383797699357457
aI-1
aI-1
aI-1
aF0.558705365194922
aI-1
aI-1
aI-1
aI-1
aI-1
aI-1
aI-1
aI-1
aI-1
aI-1
aI-1
aI-1
aI-1
aI-1
aI-1
aI-1
aI-1
aI-1
aF0.06967333661375652
aI-1
aI-1
aI-1
aI-1
aI-1
aF0.6044308597785297
aI-1
aI-1
aI-1
aI-1
aI-1
aI-1
aI-1
aI-1
aI-1
aI-1
aI-1
aI-1
aI-1
aI-1
aI-1
aI-1
aI-1
aI-1
aI-1
aI-1
aI-1
aI-1
aI-1
aI-1
aI-1
aI-1
aI-1
aI-1
aI-1
aI-1
aF0.4846514797346799
aI-1
aI-1
aF0.1434249669000349
aI-1
aI-1
aI-1
aI-1
aI-1
aI-1
aI-1
aI-1
aI-1
aI-1
aI-1
aI-1
aI-1
aI-1
aI-1
aI-1
aI-1
aI-1
aI-1
aI-1
aI-1
aI-1
aI-1
aI-1
aI-1
aI-1
aI-1
aa(lp16
I-1
aF0.15443787490199318
aI-1
aI-1
aI-1
aI-1
aI-1
aI-1
aI-1
aI-1
aI-1
aI-1
aI-1
aI-1
aI-1
aF0.2596419749359219
aI-1
aI-1
aI-1
aI-1
aF0.21870210538884147
aI-1
aI-1
aI-1
aI-1
aI-1
aI-1
aI-1
aI-1
aI-1
aF0.22692226185775605
aI-1
aI-1
aI-1
aI-1
aI-1
aI-1
aF0.21173887899118268
aI-1
aI-1
aI-1
aI-1
aI-1
aI-1
aI-1
aI-1
aI-1
aI-1
aI-1
aI-1
aI-1
aI-1
aI-1
aI-1
aI-1
aF0.22426396000992438
aI-1
aI-1
aI-1
aI-1
aI-1
aI-1
aI-1
aI-1
aI-1
aI-1
aF0.20789022265454232
aI-1
aI-1
aI-1
aI-1
aI-1
aI-1
aF0.20199375639254055
aI-1
aI-1
aF0.1956707564174045
aI-1
aI-1
aI-1
aI-1
aI-1
aI-1
aI-1
aI-1
aI-1
aI-1
aF0.044478614141189476
aI-1
aI-1
aI-1
aI-1
aI-1
aI-1
aI-1
aI-1
aI-1
aI-1
aF0.19178767088187987
aI-1
aI-1
aI-1
aI-1
aI-1
aI-1
aI-1
aI-1
aI-1
aI-1
aI-1
aI-1
aI-1
aI-1
aI-1
aI-1
aI-1
aI-1
aI-1
aI-1
aI-1
aI-1
aI-1
aI-1
aI-1
aI-1
aI-1
aI-1
aI-1
aI-1
aI-1
aI-1
aI-1
aI-1
aI-1
aI-1
aI-1
aI-1
aI-1
aI-1
aI-1
aI-1
aI-1
aI-1
aI-1
aI-1
aI-1
aI-1
aI-1
aI-1
aI-1
aI-1
aI-1
aI-1
aI-1
aI-1
aI-1
aI-1
aI-1
aI-1
aI-1
aF0.4018152069570595
aF0.19733552599275553
aI-1
aI-1
aI-1
aF0.1233803502009096
aI-1
aI-1
aI-1
aI-1
aI-1
aI-1
aI-1
aI-1
aI-1
aI-1
aI-1
aI-1
aI-1
aI-1
aI-1
aI-1
aI-1
aI-1
aF0.3028492033024233
aI-1
aI-1
aI-1
aI-1
aI-1
aI-1
aI-1
aI-1
aI-1
aI-1
aI-1
aI-1
aI-1
aI-1
aI-1
aI-1
aI-1
aI-1
aI-1
aI-1
aI-1
aI-1
aI-1
aI-1
aI-1
aI-1
aI-1
aI-1
aI-1
aI-1
aI-1
aI-1
aI-1
aI-1
aI-1
aI-1
aF1.0
aI-1
aI-1
aF0.13231316458431402
aI-1
aI-1
aI-1
aI-1
aI-1
aI-1
aI-1
aI-1
aI-1
aI-1
aI-1
aI-1
aI-1
aI-1
aI-1
aI-1
aI-1
aI-1
aI-1
aI-1
aI-1
aI-1
aI-1
aI-1
aI-1
aI-1
aI-1
aa(lp17
I-1
aF0.8261955585814125
aI-1
aI-1
aI-1
aI-1
aI-1
aI-1
aI-1
aI-1
aI-1
aI-1
aI-1
aI-1
aF0.7389511935824173
aF0.30880545020752487
aI-1
aI-1
aI-1
aI-1
aI-1
aI-1
aI-1
aI-1
aI-1
aI-1
aI-1
aI-1
aI-1
aI-1
aF0.31334733507494067
aI-1
aI-1
aI-1
aI-1
aI-1
aI-1
aF0.3533368762099196
aI-1
aI-1
aI-1
aI-1
aF0.02801936091734772
aI-1
aI-1
aF0.3409799421657776
aI-1
aI-1
aI-1
aI-1
aI-1
aI-1
aI-1
aI-1
aI-1
aF0.3661865668341548
aI-1
aF0.17282229435017132
aI-1
aI-1
aI-1
aI-1
aI-1
aI-1
aI-1
aI-1
aF0.31403447560428627
aI-1
aF0.53750571023589
aI-1
aI-1
aI-1
aI-1
aF0.3106540646307903
aI-1
aI-1
aF0.33436398783761145
aI-1
aI-1
aI-1
aI-1
aI-1
aI-1
aI-1
aI-1
aI-1
aI-1
aI-1
aI-1
aI-1
aI-1
aI-1
aI-1
aI-1
aI-1
aI-1
aI-1
aI-1
aF0.147117961899756
aI-1
aF0.09792799493568455
aI-1
aI-1
aI-1
aI-1
aI-1
aI-1
aF1.0
aI-1
aI-1
aI-1
aI-1
aI-1
aI-1
aI-1
aI-1
aI-1
aI-1
aI-1
aI-1
aI-1
aI-1
aI-1
aI-1
aI-1
aI-1
aI-1
aI-1
aI-1
aI-1
aI-1
aI-1
aI-1
aI-1
aI-1
aI-1
aI-1
aI-1
aI-1
aI-1
aI-1
aI-1
aI-1
aI-1
aI-1
aI-1
aI-1
aI-1
aI-1
aI-1
aI-1
aF0.08237668751968501
aI-1
aI-1
aI-1
aI-1
aI-1
aI-1
aI-1
aI-1
aF0.33608722262135254
aF0.3228970083067027
aI-1
aI-1
aI-1
aI-1
aI-1
aI-1
aI-1
aI-1
aI-1
aI-1
aI-1
aF0.4578075515255826
aI-1
aI-1
aI-1
aI-1
aI-1
aI-1
aI-1
aI-1
aI-1
aI-1
aI-1
aI-1
aI-1
aI-1
aI-1
aI-1
aF0.32802262187315157
aI-1
aI-1
aI-1
aI-1
aI-1
aI-1
aI-1
aI-1
aI-1
aI-1
aI-1
aI-1
aI-1
aI-1
aI-1
aI-1
aI-1
aI-1
aI-1
aI-1
aI-1
aI-1
aI-1
aI-1
aI-1
aI-1
aI-1
aI-1
aI-1
aI-1
aF0.9053475374713672
aI-1
aI-1
aF0.18274972064283998
aI-1
aI-1
aI-1
aI-1
aI-1
aI-1
aI-1
aI-1
aI-1
aI-1
aI-1
aI-1
aI-1
aI-1
aI-1
aI-1
aI-1
aI-1
aI-1
aI-1
aI-1
aI-1
aI-1
aI-1
aI-1
aI-1
aI-1
aa.